; ModuleID = '4/1540.c'
source_filename = "4/1540.c"
target datalayout = "e-m:e-p270:32:32-p271:32:32-p272:64:64-i64:64-f80:128-n8:16:32:64-S128"
target triple = "x86_64-pc-linux-gnu"

@.str = private unnamed_addr constant [6 x i8] c"%d %d\00", align 1
@.str.1 = private unnamed_addr constant [3 x i8] c"%d\00", align 1
@.str.2 = private unnamed_addr constant [4 x i8] c"%d\0A\00", align 1

; Function Attrs: noinline nounwind uwtable
define dso_local i32 @main() #0 {
  %1 = alloca i32, align 4
  %2 = alloca i32, align 4
  %3 = alloca i32, align 4
  %4 = alloca i32**, align 8
  %5 = alloca i32, align 4
  %6 = alloca i32, align 4
  %7 = alloca i32, align 4
  %8 = alloca i32, align 4
  store i32 0, i32* %1, align 4
  %9 = call i32 (i8*, ...) @__isoc99_scanf(i8* getelementptr inbounds ([6 x i8], [6 x i8]* @.str, i64 0, i64 0), i32* %2, i32* %3)
  %10 = load i32, i32* %2, align 4
  %11 = load i32, i32* %3, align 4
  %12 = mul nsw i32 %10, %11
  store i32 %12, i32* %5, align 4
  %13 = load i32, i32* %2, align 4
  %14 = sext i32 %13 to i64
  %15 = mul i64 %14, 4
  %16 = call noalias i8* @malloc(i64 %15) #3
  %17 = bitcast i8* %16 to i32**
  store i32** %17, i32*** %4, align 8
  store i32 0, i32* %6, align 4
  br label %18

18:                                               ; preds = %32, %0
  %19 = load i32, i32* %6, align 4
  %20 = load i32, i32* %2, align 4
  %21 = icmp slt i32 %19, %20
  br i1 %21, label %22, label %35

22:                                               ; preds = %18
  %23 = load i32, i32* %3, align 4
  %24 = sext i32 %23 to i64
  %25 = mul i64 %24, 4
  %26 = call noalias i8* @malloc(i64 %25) #3
  %27 = bitcast i8* %26 to i32*
  %28 = load i32**, i32*** %4, align 8
  %29 = load i32, i32* %6, align 4
  %30 = sext i32 %29 to i64
  %31 = getelementptr inbounds i32*, i32** %28, i64 %30
  store i32* %27, i32** %31, align 8
  br label %32

32:                                               ; preds = %22
  %33 = load i32, i32* %6, align 4
  %34 = add nsw i32 %33, 1
  store i32 %34, i32* %6, align 4
  br label %18

35:                                               ; preds = %18
  store i32 0, i32* %6, align 4
  br label %36

36:                                               ; preds = %59, %35
  %37 = load i32, i32* %6, align 4
  %38 = load i32, i32* %2, align 4
  %39 = icmp slt i32 %37, %38
  br i1 %39, label %40, label %62

40:                                               ; preds = %36
  store i32 0, i32* %7, align 4
  br label %41

41:                                               ; preds = %55, %40
  %42 = load i32, i32* %7, align 4
  %43 = load i32, i32* %3, align 4
  %44 = icmp slt i32 %42, %43
  br i1 %44, label %45, label %58

45:                                               ; preds = %41
  %46 = load i32**, i32*** %4, align 8
  %47 = load i32, i32* %6, align 4
  %48 = sext i32 %47 to i64
  %49 = getelementptr inbounds i32*, i32** %46, i64 %48
  %50 = load i32*, i32** %49, align 8
  %51 = load i32, i32* %7, align 4
  %52 = sext i32 %51 to i64
  %53 = getelementptr inbounds i32, i32* %50, i64 %52
  %54 = call i32 (i8*, ...) @__isoc99_scanf(i8* getelementptr inbounds ([3 x i8], [3 x i8]* @.str.1, i64 0, i64 0), i32* %53)
  br label %55

55:                                               ; preds = %45
  %56 = load i32, i32* %7, align 4
  %57 = add nsw i32 %56, 1
  store i32 %57, i32* %7, align 4
  br label %41

58:                                               ; preds = %41
  br label %59

59:                                               ; preds = %58
  %60 = load i32, i32* %6, align 4
  %61 = add nsw i32 %60, 1
  store i32 %61, i32* %6, align 4
  br label %36

62:                                               ; preds = %36
  store i32 0, i32* %6, align 4
  br label %63

63:                                               ; preds = %106, %62
  %64 = load i32, i32* %6, align 4
  %65 = load i32, i32* %3, align 4
  %66 = load i32, i32* %2, align 4
  %67 = add nsw i32 %65, %66
  %68 = sub nsw i32 %67, 1
  %69 = icmp slt i32 %64, %68
  br i1 %69, label %70, label %109

70:                                               ; preds = %63
  store i32 0, i32* %8, align 4
  %71 = load i32, i32* %6, align 4
  store i32 %71, i32* %7, align 4
  br label %72

72:                                               ; preds = %100, %70
  %73 = load i32, i32* %7, align 4
  %74 = icmp sge i32 %73, 0
  br i1 %74, label %75, label %79

75:                                               ; preds = %72
  %76 = load i32, i32* %8, align 4
  %77 = load i32, i32* %2, align 4
  %78 = icmp sle i32 %76, %77
  br label %79

79:                                               ; preds = %75, %72
  %80 = phi i1 [ false, %72 ], [ %78, %75 ]
  br i1 %80, label %81, label %105

81:                                               ; preds = %79
  %82 = load i32, i32* %7, align 4
  %83 = load i32, i32* %3, align 4
  %84 = icmp slt i32 %82, %83
  br i1 %84, label %85, label %100

85:                                               ; preds = %81
  %86 = load i32, i32* %8, align 4
  %87 = load i32, i32* %2, align 4
  %88 = icmp slt i32 %86, %87
  br i1 %88, label %89, label %100

89:                                               ; preds = %85
  %90 = load i32**, i32*** %4, align 8
  %91 = load i32, i32* %8, align 4
  %92 = sext i32 %91 to i64
  %93 = getelementptr inbounds i32*, i32** %90, i64 %92
  %94 = load i32*, i32** %93, align 8
  %95 = load i32, i32* %7, align 4
  %96 = sext i32 %95 to i64
  %97 = getelementptr inbounds i32, i32* %94, i64 %96
  %98 = load i32, i32* %97, align 4
  %99 = call i32 (i8*, ...) @printf(i8* getelementptr inbounds ([4 x i8], [4 x i8]* @.str.2, i64 0, i64 0), i32 %98)
  br label %100

100:                                              ; preds = %89, %85, %81
  %101 = load i32, i32* %8, align 4
  %102 = add nsw i32 %101, 1
  store i32 %102, i32* %8, align 4
  %103 = load i32, i32* %7, align 4
  %104 = sub nsw i32 %103, 1
  store i32 %104, i32* %7, align 4
  br label %72

105:                                              ; preds = %79
  br label %106

106:                                              ; preds = %105
  %107 = load i32, i32* %6, align 4
  %108 = add nsw i32 %107, 1
  store i32 %108, i32* %6, align 4
  br label %63

109:                                              ; preds = %63
  ret i32 0
}

declare dso_local i32 @__isoc99_scanf(i8*, ...) #1

; Function Attrs: nounwind
declare dso_local noalias i8* @malloc(i64) #2

declare dso_local i32 @printf(i8*, ...) #1


!llvm.module.flags = !{!0}
!llvm.ident = !{!1}

!0 = !{i32 1, !"wchar_size", i32 4}
!1 = !{!"clang version 10.0.0-4ubuntu1 "}
